target datalayout = "e-m:e-p270:32:32-p271:32:32-p272:64:64-i64:64-i128:128-f80:128-n8:16:32:64-S128"
target triple = "x86_64-pc-linux-gnu"

%"class.zmq::tipc_address_t" = type { i8, %struct.sockaddr_tipc }
%struct.sockaddr_tipc = type { i16, i8, i8, %union.anon }
%union.anon = type { %struct.tipc_service_range }
%struct.tipc_service_range = type { i32, i32, i32 }
%struct.tipc_socket_addr = type { i32, i32 }
%struct.anon = type { %struct.tipc_service_addr, i32 }
%struct.tipc_service_addr = type { i32, i32 }

@.str.3 = private unnamed_addr constant [4 x i8] c"<*>\00", align 1
@.str.4 = private unnamed_addr constant [11 x i8] c"{%u,%u,%u}\00", align 1
@.str.5 = private unnamed_addr constant [12 x i8] c"@%u.%u.%u%c\00", align 1
@.str.6 = private unnamed_addr constant [14 x i8] c"<%u.%u.%u:%u>\00", align 1

; Function Attrs: inlinehint mustprogress nounwind uwtable
define internal noundef i32 @_ZL9tipc_addrjjj(i32 noundef %0, i32 noundef %1, i32 noundef %2) #9 {
  %4 = alloca i32, align 4
  %5 = alloca i32, align 4
  %6 = alloca i32, align 4
  store i32 %0, ptr %4, align 4, !tbaa !15
  store i32 %1, ptr %5, align 4, !tbaa !15
  store i32 %2, ptr %6, align 4, !tbaa !15
  %7 = load i32, ptr %4, align 4, !tbaa !15
  %8 = shl i32 %7, 24
  %9 = load i32, ptr %5, align 4, !tbaa !15
  %10 = shl i32 %9, 12
  %11 = or i32 %8, %10
  %12 = load i32, ptr %6, align 4, !tbaa !15
  %13 = or i32 %11, %12
  ret i32 %13
}

; Function Attrs: mustprogress nounwind uwtable
define void @_ZN3zmq14tipc_address_t10set_randomEv(ptr noundef nonnull align 4 dereferenceable(20) %0) #0 align 2 {
  %2 = alloca ptr, align 8
  store ptr %0, ptr %2, align 8, !tbaa !3
  %3 = load ptr, ptr %2, align 8
  %4 = getelementptr inbounds nuw %"class.zmq::tipc_address_t", ptr %3, i32 0, i32 0
  store i8 1, ptr %4, align 4, !tbaa !8
  ret void
}

; Function Attrs: mustprogress uwtable
define noundef i32 @_ZN3zmq14tipc_address_t7resolveEPKc(ptr noundef nonnull align 4 dereferenceable(20) %0, ptr noundef %1) #2 align 2 {
  %3 = alloca i32, align 4
  %4 = alloca ptr, align 8
  %5 = alloca ptr, align 8
  %6 = alloca i32, align 4
  %7 = alloca i32, align 4
  %8 = alloca i32, align 4
  %9 = alloca i32, align 4
  %10 = alloca i32, align 4
  %11 = alloca i32, align 4
  %12 = alloca i32, align 4
  %13 = alloca i8, align 1
  %14 = alloca ptr, align 8
  %15 = alloca i32, align 4
  %16 = alloca i32, align 4
  store ptr %0, ptr %4, align 8, !tbaa !3
  store ptr %1, ptr %5, align 8, !tbaa !24
  %17 = load ptr, ptr %4, align 8
  call void @llvm.lifetime.start.p0(i64 4, ptr %6) #15
  store i32 0, ptr %6, align 4, !tbaa !15
  call void @llvm.lifetime.start.p0(i64 4, ptr %7) #15
  store i32 0, ptr %7, align 4, !tbaa !15
  call void @llvm.lifetime.start.p0(i64 4, ptr %8) #15
  store i32 0, ptr %8, align 4, !tbaa !15
  call void @llvm.lifetime.start.p0(i64 4, ptr %9) #15
  store i32 0, ptr %9, align 4, !tbaa !15
  call void @llvm.lifetime.start.p0(i64 4, ptr %10) #15
  store i32 1, ptr %10, align 4, !tbaa !15
  call void @llvm.lifetime.start.p0(i64 4, ptr %11) #15
  store i32 0, ptr %11, align 4, !tbaa !15
  call void @llvm.lifetime.start.p0(i64 4, ptr %12) #15
  store i32 0, ptr %12, align 4, !tbaa !15
  call void @llvm.lifetime.start.p0(i64 1, ptr %13) #15
  call void @llvm.lifetime.start.p0(i64 8, ptr %14) #15
  call void @llvm.lifetime.start.p0(i64 4, ptr %15) #15
  %18 = load ptr, ptr %5, align 8, !tbaa !24
  %19 = call i32 @strncmp(ptr noundef %18, ptr noundef @.str.3, i64 noundef 3) #16
  %20 = icmp eq i32 %19, 0
  br i1 %20, label %21, label %34

21:                                               ; preds = %2
  call void @_ZN3zmq14tipc_address_t10set_randomEv(ptr noundef nonnull align 4 dereferenceable(20) %17)
  %22 = getelementptr inbounds nuw %"class.zmq::tipc_address_t", ptr %17, i32 0, i32 1
  %23 = getelementptr inbounds nuw %struct.sockaddr_tipc, ptr %22, i32 0, i32 0
  store i16 30, ptr %23, align 4, !tbaa !26
  %24 = getelementptr inbounds nuw %"class.zmq::tipc_address_t", ptr %17, i32 0, i32 1
  %25 = getelementptr inbounds nuw %struct.sockaddr_tipc, ptr %24, i32 0, i32 1
  store i8 3, ptr %25, align 2, !tbaa !23
  %26 = getelementptr inbounds nuw %"class.zmq::tipc_address_t", ptr %17, i32 0, i32 1
  %27 = getelementptr inbounds nuw %struct.sockaddr_tipc, ptr %26, i32 0, i32 3
  %28 = getelementptr inbounds nuw %struct.tipc_socket_addr, ptr %27, i32 0, i32 1
  store i32 0, ptr %28, align 4, !tbaa !27
  %29 = getelementptr inbounds nuw %"class.zmq::tipc_address_t", ptr %17, i32 0, i32 1
  %30 = getelementptr inbounds nuw %struct.sockaddr_tipc, ptr %29, i32 0, i32 3
  %31 = getelementptr inbounds nuw %struct.tipc_socket_addr, ptr %30, i32 0, i32 0
  store i32 0, ptr %31, align 4, !tbaa !27
  %32 = getelementptr inbounds nuw %"class.zmq::tipc_address_t", ptr %17, i32 0, i32 1
  %33 = getelementptr inbounds nuw %struct.sockaddr_tipc, ptr %32, i32 0, i32 2
  store i8 0, ptr %33, align 1, !tbaa !28
  store i32 0, ptr %3, align 4
  store i32 1, ptr %16, align 4
  br label %135

34:                                               ; preds = %2
  %35 = load ptr, ptr %5, align 8, !tbaa !24
  %36 = call i32 (ptr, ptr, ...) @__isoc99_sscanf(ptr noundef %35, ptr noundef @.str.4, ptr noundef %6, ptr noundef %7, ptr noundef %8) #15
  store i32 %36, ptr %15, align 4, !tbaa !15
  %37 = load ptr, ptr %5, align 8, !tbaa !24
  %38 = call noundef ptr @strchr(ptr noundef %37, i32 noundef 64) #16
  store ptr %38, ptr %14, align 8, !tbaa !24
  %39 = icmp ne ptr %38, null
  br i1 %39, label %40, label %46

40:                                               ; preds = %34
  %41 = load ptr, ptr %14, align 8, !tbaa !24
  %42 = call i32 (ptr, ptr, ...) @__isoc99_sscanf(ptr noundef %41, ptr noundef @.str.5, ptr noundef %10, ptr noundef %11, ptr noundef %12, ptr noundef %13) #15
  %43 = icmp ne i32 %42, 3
  br i1 %43, label %44, label %45

44:                                               ; preds = %40
  store i32 22, ptr %3, align 4
  store i32 1, ptr %16, align 4
  br label %135

45:                                               ; preds = %40
  br label %46

46:                                               ; preds = %45, %34
  %47 = load i32, ptr %15, align 4, !tbaa !15
  %48 = icmp eq i32 %47, 3
  br i1 %48, label %49, label %76

49:                                               ; preds = %46
  %50 = load i32, ptr %6, align 4, !tbaa !15
  %51 = icmp ult i32 %50, 64
  br i1 %51, label %56, label %52

52:                                               ; preds = %49
  %53 = load i32, ptr %8, align 4, !tbaa !15
  %54 = load i32, ptr %7, align 4, !tbaa !15
  %55 = icmp ult i32 %53, %54
  br i1 %55, label %56, label %57

56:                                               ; preds = %52, %49
  store i32 22, ptr %3, align 4
  store i32 1, ptr %16, align 4
  br label %135

57:                                               ; preds = %52
  %58 = getelementptr inbounds nuw %"class.zmq::tipc_address_t", ptr %17, i32 0, i32 1
  %59 = getelementptr inbounds nuw %struct.sockaddr_tipc, ptr %58, i32 0, i32 0
  store i16 30, ptr %59, align 4, !tbaa !26
  %60 = getelementptr inbounds nuw %"class.zmq::tipc_address_t", ptr %17, i32 0, i32 1
  %61 = getelementptr inbounds nuw %struct.sockaddr_tipc, ptr %60, i32 0, i32 1
  store i8 1, ptr %61, align 2, !tbaa !23
  %62 = load i32, ptr %6, align 4, !tbaa !15
  %63 = getelementptr inbounds nuw %"class.zmq::tipc_address_t", ptr %17, i32 0, i32 1
  %64 = getelementptr inbounds nuw %struct.sockaddr_tipc, ptr %63, i32 0, i32 3
  %65 = getelementptr inbounds nuw %struct.tipc_service_range, ptr %64, i32 0, i32 0
  store i32 %62, ptr %65, align 4, !tbaa !27
  %66 = load i32, ptr %7, align 4, !tbaa !15
  %67 = getelementptr inbounds nuw %"class.zmq::tipc_address_t", ptr %17, i32 0, i32 1
  %68 = getelementptr inbounds nuw %struct.sockaddr_tipc, ptr %67, i32 0, i32 3
  %69 = getelementptr inbounds nuw %struct.tipc_service_range, ptr %68, i32 0, i32 1
  store i32 %66, ptr %69, align 4, !tbaa !27
  %70 = load i32, ptr %8, align 4, !tbaa !15
  %71 = getelementptr inbounds nuw %"class.zmq::tipc_address_t", ptr %17, i32 0, i32 1
  %72 = getelementptr inbounds nuw %struct.sockaddr_tipc, ptr %71, i32 0, i32 3
  %73 = getelementptr inbounds nuw %struct.tipc_service_range, ptr %72, i32 0, i32 2
  store i32 %70, ptr %73, align 4, !tbaa !27
  %74 = getelementptr inbounds nuw %"class.zmq::tipc_address_t", ptr %17, i32 0, i32 1
  %75 = getelementptr inbounds nuw %struct.sockaddr_tipc, ptr %74, i32 0, i32 2
  store i8 1, ptr %75, align 1, !tbaa !28
  store i32 0, ptr %3, align 4
  store i32 1, ptr %16, align 4
  br label %135

76:                                               ; preds = %46
  %77 = load i32, ptr %15, align 4, !tbaa !15
  %78 = icmp eq i32 %77, 2
  br i1 %78, label %79, label %106

79:                                               ; preds = %76
  %80 = load i32, ptr %6, align 4, !tbaa !15
  %81 = icmp ugt i32 %80, 64
  br i1 %81, label %82, label %106

82:                                               ; preds = %79
  %83 = getelementptr inbounds nuw %"class.zmq::tipc_address_t", ptr %17, i32 0, i32 1
  %84 = getelementptr inbounds nuw %struct.sockaddr_tipc, ptr %83, i32 0, i32 0
  store i16 30, ptr %84, align 4, !tbaa !26
  %85 = getelementptr inbounds nuw %"class.zmq::tipc_address_t", ptr %17, i32 0, i32 1
  %86 = getelementptr inbounds nuw %struct.sockaddr_tipc, ptr %85, i32 0, i32 1
  store i8 2, ptr %86, align 2, !tbaa !23
  %87 = load i32, ptr %6, align 4, !tbaa !15
  %88 = getelementptr inbounds nuw %"class.zmq::tipc_address_t", ptr %17, i32 0, i32 1
  %89 = getelementptr inbounds nuw %struct.sockaddr_tipc, ptr %88, i32 0, i32 3
  %90 = getelementptr inbounds nuw %struct.anon, ptr %89, i32 0, i32 0
  %91 = getelementptr inbounds nuw %struct.tipc_service_addr, ptr %90, i32 0, i32 0
  store i32 %87, ptr %91, align 4, !tbaa !27
  %92 = load i32, ptr %7, align 4, !tbaa !15
  %93 = getelementptr inbounds nuw %"class.zmq::tipc_address_t", ptr %17, i32 0, i32 1
  %94 = getelementptr inbounds nuw %struct.sockaddr_tipc, ptr %93, i32 0, i32 3
  %95 = getelementptr inbounds nuw %struct.anon, ptr %94, i32 0, i32 0
  %96 = getelementptr inbounds nuw %struct.tipc_service_addr, ptr %95, i32 0, i32 1
  store i32 %92, ptr %96, align 4, !tbaa !27
  %97 = load i32, ptr %10, align 4, !tbaa !15
  %98 = load i32, ptr %11, align 4, !tbaa !15
  %99 = load i32, ptr %12, align 4, !tbaa !15
  %100 = call noundef i32 @_ZL9tipc_addrjjj(i32 noundef %97, i32 noundef %98, i32 noundef %99)
  %101 = getelementptr inbounds nuw %"class.zmq::tipc_address_t", ptr %17, i32 0, i32 1
  %102 = getelementptr inbounds nuw %struct.sockaddr_tipc, ptr %101, i32 0, i32 3
  %103 = getelementptr inbounds nuw %struct.anon, ptr %102, i32 0, i32 1
  store i32 %100, ptr %103, align 4, !tbaa !27
  %104 = getelementptr inbounds nuw %"class.zmq::tipc_address_t", ptr %17, i32 0, i32 1
  %105 = getelementptr inbounds nuw %struct.sockaddr_tipc, ptr %104, i32 0, i32 2
  store i8 0, ptr %105, align 1, !tbaa !28
  store i32 0, ptr %3, align 4
  store i32 1, ptr %16, align 4
  br label %135

106:                                              ; preds = %79, %76
  %107 = load i32, ptr %15, align 4, !tbaa !15
  %108 = icmp eq i32 %107, 0
  br i1 %108, label %109, label %133

109:                                              ; preds = %106
  %110 = load ptr, ptr %5, align 8, !tbaa !24
  %111 = call i32 (ptr, ptr, ...) @__isoc99_sscanf(ptr noundef %110, ptr noundef @.str.6, ptr noundef %10, ptr noundef %11, ptr noundef %12, ptr noundef %9) #15
  store i32 %111, ptr %15, align 4, !tbaa !15
  %112 = load i32, ptr %15, align 4, !tbaa !15
  %113 = icmp eq i32 %112, 4
  br i1 %113, label %114, label %132

114:                                              ; preds = %109
  %115 = getelementptr inbounds nuw %"class.zmq::tipc_address_t", ptr %17, i32 0, i32 1
  %116 = getelementptr inbounds nuw %struct.sockaddr_tipc, ptr %115, i32 0, i32 0
  store i16 30, ptr %116, align 4, !tbaa !26
  %117 = getelementptr inbounds nuw %"class.zmq::tipc_address_t", ptr %17, i32 0, i32 1
  %118 = getelementptr inbounds nuw %struct.sockaddr_tipc, ptr %117, i32 0, i32 1
  store i8 3, ptr %118, align 2, !tbaa !23
  %119 = load i32, ptr %10, align 4, !tbaa !15
  %120 = load i32, ptr %11, align 4, !tbaa !15
  %121 = load i32, ptr %12, align 4, !tbaa !15
  %122 = call noundef i32 @_ZL9tipc_addrjjj(i32 noundef %119, i32 noundef %120, i32 noundef %121)
  %123 = getelementptr inbounds nuw %"class.zmq::tipc_address_t", ptr %17, i32 0, i32 1
  %124 = getelementptr inbounds nuw %struct.sockaddr_tipc, ptr %123, i32 0, i32 3
  %125 = getelementptr inbounds nuw %struct.tipc_socket_addr, ptr %124, i32 0, i32 1
  store i32 %122, ptr %125, align 4, !tbaa !27
  %126 = load i32, ptr %9, align 4, !tbaa !15
  %127 = getelementptr inbounds nuw %"class.zmq::tipc_address_t", ptr %17, i32 0, i32 1
  %128 = getelementptr inbounds nuw %struct.sockaddr_tipc, ptr %127, i32 0, i32 3
  %129 = getelementptr inbounds nuw %struct.tipc_socket_addr, ptr %128, i32 0, i32 0
  store i32 %126, ptr %129, align 4, !tbaa !27
  %130 = getelementptr inbounds nuw %"class.zmq::tipc_address_t", ptr %17, i32 0, i32 1
  %131 = getelementptr inbounds nuw %struct.sockaddr_tipc, ptr %130, i32 0, i32 2
  store i8 0, ptr %131, align 1, !tbaa !28
  store i32 0, ptr %3, align 4
  store i32 1, ptr %16, align 4
  br label %135

132:                                              ; preds = %109
  br label %133

133:                                              ; preds = %132, %106
  br label %134

134:                                              ; preds = %133
  store i32 22, ptr %3, align 4
  store i32 1, ptr %16, align 4
  br label %135

135:                                              ; preds = %134, %114, %82, %57, %56, %44, %21
  call void @llvm.lifetime.end.p0(i64 4, ptr %15) #15
  call void @llvm.lifetime.end.p0(i64 8, ptr %14) #15
  call void @llvm.lifetime.end.p0(i64 1, ptr %13) #15
  call void @llvm.lifetime.end.p0(i64 4, ptr %12) #15
  call void @llvm.lifetime.end.p0(i64 4, ptr %11) #15
  call void @llvm.lifetime.end.p0(i64 4, ptr %10) #15
  call void @llvm.lifetime.end.p0(i64 4, ptr %9) #15
  call void @llvm.lifetime.end.p0(i64 4, ptr %8) #15
  call void @llvm.lifetime.end.p0(i64 4, ptr %7) #15
  call void @llvm.lifetime.end.p0(i64 4, ptr %6) #15
  %136 = load i32, ptr %3, align 4
  ret i32 %136
}