; Function Attrs: mustprogress nofree nounwind uwtable
define noundef range(i32 0, 23) i32 @_ZN3zmq14tipc_address_t7resolveEPKc(ptr noundef nonnull writeonly align 4 captures(none) dereferenceable(20) %0, ptr noundef readonly %1) local_unnamed_addr #7 align 2 {
sub_0:
  %2 = alloca i32, align 4
  %3 = alloca i32, align 4
  %4 = alloca i32, align 4
  %5 = alloca i32, align 4
  %6 = alloca i32, align 4
  %7 = alloca i32, align 4
  %8 = alloca i32, align 4
  %9 = alloca i8, align 1
  call void @llvm.lifetime.start.p0(i64 4, ptr nonnull %2) #17
  store i32 0, ptr %2, align 4, !tbaa !19
  call void @llvm.lifetime.start.p0(i64 4, ptr nonnull %3) #17
  store i32 0, ptr %3, align 4, !tbaa !19
  call void @llvm.lifetime.start.p0(i64 4, ptr nonnull %4) #17
  store i32 0, ptr %4, align 4, !tbaa !19
  call void @llvm.lifetime.start.p0(i64 4, ptr nonnull %5) #17
  store i32 0, ptr %5, align 4, !tbaa !19
  call void @llvm.lifetime.start.p0(i64 4, ptr nonnull %6) #17
  store i32 1, ptr %6, align 4, !tbaa !19
  call void @llvm.lifetime.start.p0(i64 4, ptr nonnull %7) #17
  store i32 0, ptr %7, align 4, !tbaa !19
  call void @llvm.lifetime.start.p0(i64 4, ptr nonnull %8) #17
  store i32 0, ptr %8, align 4, !tbaa !19
  call void @llvm.lifetime.start.p0(i64 1, ptr nonnull %9) #17
  %10 = load i8, ptr %1, align 1
  %.not14 = icmp eq i8 %10, 60
  br i1 %.not14, label %sub_1, label %.tail.thread

sub_1:                                            ; preds = %sub_0
  %11 = getelementptr inbounds nuw i8, ptr %1, i64 1
  %12 = load i8, ptr %11, align 1
  %.not15 = icmp eq i8 %12, 42
  br i1 %.not15, label %.tail, label %.tail.thread

.tail:                                            ; preds = %sub_1
  %13 = getelementptr inbounds nuw i8, ptr %1, i64 2
  %14 = load i8, ptr %13, align 1
  %15 = icmp eq i8 %14, 62
  br i1 %15, label %16, label %.tail.thread

16:                                               ; preds = %.tail
  store i8 1, ptr %0, align 4, !tbaa !3
  %17 = getelementptr inbounds nuw i8, ptr %0, i64 4
  store i16 30, ptr %17, align 4, !tbaa !21
  %18 = getelementptr inbounds nuw i8, ptr %0, i64 6
  store i8 3, ptr %18, align 2, !tbaa !18
  %19 = getelementptr inbounds nuw i8, ptr %0, i64 7
  tail call void @llvm.memset.p0.i64(ptr noundef nonnull align 1 dereferenceable(9) %19, i8 0, i64 9, i1 false)
  br label %78

.tail.thread:                                     ; preds = %sub_1, %sub_0, %.tail
  %20 = call i32 (ptr, ptr, ...) @__isoc99_sscanf(ptr noundef nonnull %1, ptr noundef nonnull @.str.4, ptr noundef nonnull %2, ptr noundef nonnull %3, ptr noundef nonnull %4) #17
  %21 = call noundef ptr @strchr(ptr noundef nonnull dereferenceable(1) %1, i32 noundef 64) #18
  %.not = icmp eq ptr %21, null
  br i1 %.not, label %24, label %22

22:                                               ; preds = %.tail.thread
  %23 = call i32 (ptr, ptr, ...) @__isoc99_sscanf(ptr noundef nonnull %21, ptr noundef nonnull @.str.5, ptr noundef nonnull %6, ptr noundef nonnull %7, ptr noundef nonnull %8, ptr noundef nonnull %9) #17
  %.not13 = icmp eq i32 %23, 3
  br i1 %.not13, label %24, label %78

24:                                               ; preds = %22, %.tail.thread
  %25 = icmp eq i32 %20, 3
  br i1 %25, label %26, label %40

26:                                               ; preds = %24
  %27 = load i32, ptr %2, align 4, !tbaa !19
  %28 = icmp ult i32 %27, 64
  br i1 %28, label %78, label %29

29:                                               ; preds = %26
  %30 = load i32, ptr %4, align 4, !tbaa !19
  %31 = load i32, ptr %3, align 4, !tbaa !19
  %32 = icmp ult i32 %30, %31
  br i1 %32, label %78, label %33

33:                                               ; preds = %29
  %34 = getelementptr inbounds nuw i8, ptr %0, i64 4
  store i16 30, ptr %34, align 4, !tbaa !21
  %35 = getelementptr inbounds nuw i8, ptr %0, i64 6
  store i8 1, ptr %35, align 2, !tbaa !18
  %36 = getelementptr inbounds nuw i8, ptr %0, i64 8
  store i32 %27, ptr %36, align 4, !tbaa !22
  %37 = getelementptr inbounds nuw i8, ptr %0, i64 12
  store i32 %31, ptr %37, align 4, !tbaa !22
  %38 = getelementptr inbounds nuw i8, ptr %0, i64 16
  store i32 %30, ptr %38, align 4, !tbaa !22
  %39 = getelementptr inbounds nuw i8, ptr %0, i64 7
  store i8 1, ptr %39, align 1, !tbaa !23
  br label %78

40:                                               ; preds = %24
  %41 = icmp eq i32 %20, 2
  %42 = load i32, ptr %2, align 4
  %43 = icmp ugt i32 %42, 64
  %or.cond = select i1 %41, i1 %43, i1 false
  br i1 %or.cond, label %44, label %59

44:                                               ; preds = %40
  %45 = getelementptr inbounds nuw i8, ptr %0, i64 4
  store i16 30, ptr %45, align 4, !tbaa !21
  %46 = getelementptr inbounds nuw i8, ptr %0, i64 6
  store i8 2, ptr %46, align 2, !tbaa !18
  %47 = getelementptr inbounds nuw i8, ptr %0, i64 8
  store i32 %42, ptr %47, align 4, !tbaa !22
  %48 = load i32, ptr %3, align 4, !tbaa !19
  %49 = getelementptr inbounds nuw i8, ptr %0, i64 12
  store i32 %48, ptr %49, align 4, !tbaa !22
  %50 = load i32, ptr %6, align 4, !tbaa !19
  %51 = load i32, ptr %7, align 4, !tbaa !19
  %52 = load i32, ptr %8, align 4, !tbaa !19
  %53 = shl i32 %50, 24
  %54 = shl i32 %51, 12
  %55 = or i32 %54, %53
  %56 = or i32 %55, %52
  %57 = getelementptr inbounds nuw i8, ptr %0, i64 16
  store i32 %56, ptr %57, align 4, !tbaa !22
  %58 = getelementptr inbounds nuw i8, ptr %0, i64 7
  store i8 0, ptr %58, align 1, !tbaa !23
  br label %78

59:                                               ; preds = %40
  %60 = icmp eq i32 %20, 0
  br i1 %60, label %61, label %78

61:                                               ; preds = %59
  %62 = call i32 (ptr, ptr, ...) @__isoc99_sscanf(ptr noundef nonnull %1, ptr noundef nonnull @.str.6, ptr noundef nonnull %6, ptr noundef nonnull %7, ptr noundef nonnull %8, ptr noundef nonnull %5) #17
  %63 = icmp eq i32 %62, 4
  br i1 %63, label %64, label %78

64:                                               ; preds = %61
  %65 = getelementptr inbounds nuw i8, ptr %0, i64 4
  store i16 30, ptr %65, align 4, !tbaa !21
  %66 = getelementptr inbounds nuw i8, ptr %0, i64 6
  store i8 3, ptr %66, align 2, !tbaa !18
  %67 = load i32, ptr %6, align 4, !tbaa !19
  %68 = load i32, ptr %7, align 4, !tbaa !19
  %69 = load i32, ptr %8, align 4, !tbaa !19
  %70 = shl i32 %67, 24
  %71 = shl i32 %68, 12
  %72 = or i32 %71, %70
  %73 = or i32 %72, %69
  %74 = getelementptr inbounds nuw i8, ptr %0, i64 8
  %75 = getelementptr inbounds nuw i8, ptr %0, i64 12
  store i32 %73, ptr %75, align 4, !tbaa !22
  %76 = load i32, ptr %5, align 4, !tbaa !19
  store i32 %76, ptr %74, align 4, !tbaa !22
  %77 = getelementptr inbounds nuw i8, ptr %0, i64 7
  store i8 0, ptr %77, align 1, !tbaa !23
  br label %78

78:                                               ; preds = %61, %59, %26, %29, %22, %64, %44, %33, %16
  %.0 = phi i32 [ 0, %16 ], [ 0, %33 ], [ 0, %44 ], [ 0, %64 ], [ 22, %22 ], [ 22, %29 ], [ 22, %26 ], [ 22, %59 ], [ 22, %61 ]
  call void @llvm.lifetime.end.p0(i64 1, ptr nonnull %9) #17
  call void @llvm.lifetime.end.p0(i64 4, ptr nonnull %8) #17
  call void @llvm.lifetime.end.p0(i64 4, ptr nonnull %7) #17
  call void @llvm.lifetime.end.p0(i64 4, ptr nonnull %6) #17
  call void @llvm.lifetime.end.p0(i64 4, ptr nonnull %5) #17
  call void @llvm.lifetime.end.p0(i64 4, ptr nonnull %4) #17
  call void @llvm.lifetime.end.p0(i64 4, ptr nonnull %3) #17
  call void @llvm.lifetime.end.p0(i64 4, ptr nonnull %2) #17
  ret i32 %.0
}